target datalayout = "e-m:e-p270:32:32-p271:32:32-p272:64:64-i64:64-i128:128-f80:128-n8:16:32:64-S128"
target triple = "x86_64-pc-linux-gnu"

; Function Attrs: nounwind uwtable
define ptr @d2i_PKCS12_fp(ptr noundef %0, ptr noundef %1) #0 {
  %3 = alloca ptr, align 8
  %4 = alloca ptr, align 8
  %5 = alloca ptr, align 8
  %6 = alloca ptr, align 8
  %7 = alloca ptr, align 8
  store ptr %0, ptr %3, align 8, !tbaa !28
  store ptr %1, ptr %4, align 8, !tbaa !30
  call void @llvm.lifetime.start.p0(i64 8, ptr %5) #4
  store ptr null, ptr %5, align 8, !tbaa !32
  call void @llvm.lifetime.start.p0(i64 8, ptr %6) #4
  store ptr null, ptr %6, align 8, !tbaa !3
  call void @llvm.lifetime.start.p0(i64 8, ptr %7) #4
  store ptr null, ptr %7, align 8, !tbaa !34
  %8 = load ptr, ptr %4, align 8, !tbaa !30
  %9 = icmp ne ptr %8, null
  br i1 %9, label %10, label %22

10:                                               ; preds = %2
  %11 = load ptr, ptr %4, align 8, !tbaa !30
  %12 = load ptr, ptr %11, align 8, !tbaa !26
  %13 = call ptr @ossl_pkcs12_get0_pkcs7ctx(ptr noundef %12)
  store ptr %13, ptr %7, align 8, !tbaa !34
  %14 = load ptr, ptr %7, align 8, !tbaa !34
  %15 = icmp ne ptr %14, null
  br i1 %15, label %16, label %21

16:                                               ; preds = %10
  %17 = load ptr, ptr %7, align 8, !tbaa !34
  %18 = call ptr @ossl_pkcs7_ctx_get0_libctx(ptr noundef %17)
  store ptr %18, ptr %5, align 8, !tbaa !32
  %19 = load ptr, ptr %7, align 8, !tbaa !34
  %20 = call ptr @ossl_pkcs7_ctx_get0_propq(ptr noundef %19)
  store ptr %20, ptr %6, align 8, !tbaa !3
  br label %21

21:                                               ; preds = %16, %10
  br label %22

22:                                               ; preds = %21, %2
  %23 = call ptr @PKCS12_it()
  %24 = load ptr, ptr %3, align 8, !tbaa !28
  %25 = load ptr, ptr %4, align 8, !tbaa !30
  %26 = load ptr, ptr %5, align 8, !tbaa !32
  %27 = load ptr, ptr %6, align 8, !tbaa !3
  %28 = call ptr @ASN1_item_d2i_fp_ex(ptr noundef %23, ptr noundef %24, ptr noundef %25, ptr noundef %26, ptr noundef %27)
  call void @llvm.lifetime.end.p0(i64 8, ptr %7) #4
  call void @llvm.lifetime.end.p0(i64 8, ptr %6) #4
  call void @llvm.lifetime.end.p0(i64 8, ptr %5) #4
  ret ptr %28
}