; Function Attrs: nounwind uwtable
define ptr @d2i_PKCS12_fp(ptr noundef %0, ptr noundef %1) local_unnamed_addr #0 {
  %.not = icmp eq ptr %1, null
  br i1 %.not, label %9, label %3

3:                                                ; preds = %2
  %4 = load ptr, ptr %1, align 8, !tbaa !20
  %5 = tail call ptr @ossl_pkcs12_get0_pkcs7ctx(ptr noundef %4) #6
  %.not12 = icmp eq ptr %5, null
  br i1 %.not12, label %9, label %6

6:                                                ; preds = %3
  %7 = tail call ptr @ossl_pkcs7_ctx_get0_libctx(ptr noundef nonnull %5) #6
  %8 = tail call ptr @ossl_pkcs7_ctx_get0_propq(ptr noundef nonnull %5) #6
  br label %9

9:                                                ; preds = %3, %6, %2
  %.09 = phi ptr [ %7, %6 ], [ null, %3 ], [ null, %2 ]
  %.0 = phi ptr [ %8, %6 ], [ null, %3 ], [ null, %2 ]
  %10 = tail call ptr @PKCS12_it() #6
  %11 = tail call ptr @ASN1_item_d2i_fp_ex(ptr noundef %10, ptr noundef %0, ptr noundef %1, ptr noundef %.09, ptr noundef %.0) #6
  ret ptr %11
}